Certificate:
    Data:
        Version: 3 (0x2)
        Serial Number:
            0f:17:b5:0c:09:56:f4:35:34:1b:53:5f:49:36:cb:7d
        Signature Algorithm: sha256WithRSAEncryption
        Issuer: CN=Teemoorka Network
        Validity
            Not Before: Jun 16 12:32:35 2024 GMT
            Not After : Sep 19 12:32:35 2026 GMT
        Subject: CN=admin
        Subject Public Key Info:
            Public Key Algorithm: rsaEncryption
                RSA Public-Key: (2048 bit)
                Modulus:
                    00:a5:cc:ac:1b:22:cf:42:89:c8:4c:f3:69:bb:ed:
                    a2:22:0d:f2:71:8b:af:6d:9c:d7:c8:5e:fb:b1:5d:
                    b1:51:a6:5f:94:0d:f4:6e:97:f2:5e:37:f4:24:74:
                    88:86:72:3d:a1:d1:7a:e6:7d:ec:a9:5d:91:51:3f:
                    3e:94:66:6b:54:92:de:e1:d1:05:d6:79:da:19:b8:
                    f6:32:9f:43:99:32:95:6c:95:f9:21:dc:61:be:dc:
                    14:89:68:62:14:d8:55:97:8a:86:f0:e5:0f:ce:3a:
                    88:7e:f8:b1:85:af:b6:b0:a7:c2:d4:54:76:7f:79:
                    44:b0:51:d7:f6:05:8d:26:54:93:ef:4c:77:18:37:
                    8d:8d:26:92:8e:28:4e:9d:bb:38:60:2e:df:a8:b5:
                    31:b1:6a:e0:1b:9f:e7:a0:03:9e:e2:63:fe:e3:e4:
                    f5:41:71:2a:12:dd:45:a8:0c:cf:80:a8:22:4a:01:
                    d2:e8:b7:e0:48:d3:b1:65:15:63:a8:ef:ce:25:d3:
                    40:cb:63:40:fa:d3:ae:82:92:8f:b1:32:a4:00:6b:
                    7d:12:5b:d7:bf:64:de:9e:83:9f:d5:52:a4:9f:6f:
                    e7:b6:ec:d3:4b:4e:a8:e8:97:3a:ed:03:80:26:94:
                    f4:36:ab:7f:b2:e7:81:0b:7f:81:46:47:50:d2:03:
                    2f:49
                Exponent: 65537 (0x10001)
        X509v3 extensions:
            X509v3 Basic Constraints: 
                CA:FALSE
            X509v3 Subject Key Identifier: 
                36:0D:F2:C6:5E:83:00:D8:ED:B2:31:8D:76:10:38:20:0F:B3:01:3D
            X509v3 Authority Key Identifier: 
                keyid:20:51:74:8D:0B:12:C0:83:71:DA:41:4B:28:7E:76:62:0B:9B:06:A9
                DirName:/CN=Teemoorka Network
                serial:24:63:E8:48:F2:32:CB:F5:C6:7F:61:12:E4:B2:0F:65:75:85:45:41

            X509v3 Extended Key Usage: 
                TLS Web Client Authentication
            X509v3 Key Usage: 
                Digital Signature
    Signature Algorithm: sha256WithRSAEncryption
         1c:9a:62:c7:62:26:96:9f:24:7f:c3:0f:68:50:6b:23:b6:9f:
         bf:1f:36:5e:6a:37:fd:80:2b:a2:ed:c7:b9:ef:14:6a:5c:6f:
         65:d2:f9:d9:25:20:dc:7b:f8:ed:14:43:4d:4b:23:83:3f:fa:
         3a:09:2a:1b:76:24:93:07:da:af:09:67:25:17:19:71:83:7a:
         6d:70:52:e7:e5:24:01:7c:3b:f4:cc:04:c8:1b:62:2b:73:e4:
         6c:ae:0b:e0:3c:8d:4d:76:ca:38:5a:9e:03:ab:f0:d8:72:3d:
         3a:7f:c6:73:a5:48:71:f1:ca:44:34:a7:51:ac:f5:a4:e9:8e:
         4e:fc:25:a4:25:08:6d:e6:dd:d3:48:ae:b5:68:88:b6:2d:f8:
         2b:ba:f8:5e:73:9b:b3:60:14:92:0a:29:a9:91:1f:2c:4b:b7:
         2f:5c:f1:ae:37:f6:fc:05:17:34:a7:b9:56:17:d0:0c:6e:83:
         6b:84:9f:47:0f:15:49:da:d3:20:1a:1e:47:d1:d5:31:f9:2f:
         47:ab:70:62:c6:5a:f0:49:07:36:4b:cf:ad:be:27:a7:10:96:
         16:a6:5d:08:ee:f1:17:49:3e:94:f2:53:60:4f:ea:63:01:8a:
         77:03:67:52:e9:b0:ab:79:52:83:9b:47:c5:b6:28:00:37:39:
         a9:6d:08:85
-----BEGIN CERTIFICATE-----
MIIDXzCCAkegAwIBAgIQDxe1DAlW9DU0G1NfSTbLfTANBgkqhkiG9w0BAQsFADAc
MRowGAYDVQQDDBFUZWVtb29ya2EgTmV0d29yazAeFw0yNDA2MTYxMjMyMzVaFw0y
NjA5MTkxMjMyMzVaMBAxDjAMBgNVBAMMBWFkbWluMIIBIjANBgkqhkiG9w0BAQEF
AAOCAQ8AMIIBCgKCAQEApcysGyLPQonITPNpu+2iIg3ycYuvbZzXyF77sV2xUaZf
lA30bpfyXjf0JHSIhnI9odF65n3sqV2RUT8+lGZrVJLe4dEF1nnaGbj2Mp9DmTKV
bJX5IdxhvtwUiWhiFNhVl4qG8OUPzjqIfvixha+2sKfC1FR2f3lEsFHX9gWNJlST
70x3GDeNjSaSjihOnbs4YC7fqLUxsWrgG5/noAOe4mP+4+T1QXEqEt1FqAzPgKgi
SgHS6LfgSNOxZRVjqO/OJdNAy2NA+tOugpKPsTKkAGt9ElvXv2TenoOf1VKkn2/n
tuzTS06o6Jc67QOAJpT0Nqt/sueBC3+BRkdQ0gMvSQIDAQABo4GoMIGlMAkGA1Ud
EwQCMAAwHQYDVR0OBBYEFDYN8sZegwDY7bIxjXYQOCAPswE9MFcGA1UdIwRQME6A
FCBRdI0LEsCDcdpBSyh+dmILmwapoSCkHjAcMRowGAYDVQQDDBFUZWVtb29ya2Eg
TmV0d29ya4IUJGPoSPIyy/XGf2ES5LIPZXWFRUEwEwYDVR0lBAwwCgYIKwYBBQUH
AwIwCwYDVR0PBAQDAgeAMA0GCSqGSIb3DQEBCwUAA4IBAQAcmmLHYiaWnyR/ww9o
UGsjtp+/HzZeajf9gCui7ce57xRqXG9l0vnZJSDce/jtFENNSyODP/o6CSobdiST
B9qvCWclFxlxg3ptcFLn5SQBfDv0zATIG2Irc+RsrgvgPI1Ndso4Wp4Dq/DYcj06
f8ZzpUhx8cpENKdRrPWk6Y5O/CWkJQht5t3TSK61aIi2Lfgruvhec5uzYBSSCimp
kR8sS7cvXPGuN/b8BRc0p7lWF9AMboNrhJ9HDxVJ2tMgGh5H0dUx+S9Hq3Bixlrw
SQc2S8+tvienEJYWpl0I7vEXST6U8lNgT+pjAYp3A2dS6bCreVKDm0fFtigANzmp
bQiF
-----END CERTIFICATE-----
