Certificate:
    Data:
        Version: 3 (0x2)
        Serial Number:
            31:5f:e9:b8:6b:7f:5c:04:62:0c:78:13:d4:75:a4:42
        Signature Algorithm: sha256WithRSAEncryption
        Issuer: CN=Teemoorka Network
        Validity
            Not Before: Jun 16 14:06:08 2024 GMT
            Not After : Sep 19 14:06:08 2026 GMT
        Subject: CN=router
        Subject Public Key Info:
            Public Key Algorithm: rsaEncryption
                RSA Public-Key: (2048 bit)
                Modulus:
                    00:b7:4f:2d:86:87:a1:eb:2b:33:36:8f:ed:8b:de:
                    d7:7d:b6:ed:fe:1b:2e:eb:31:9b:58:2b:da:01:34:
                    0d:58:51:b0:63:4e:04:90:2b:dd:83:2b:07:a0:0d:
                    33:b4:37:c2:96:93:64:34:12:a0:19:51:51:02:e7:
                    2d:9d:df:82:94:df:74:f3:48:96:44:df:aa:b6:93:
                    a1:30:81:a5:2e:7b:fb:40:c2:91:47:f2:d0:41:8d:
                    b0:4f:85:64:30:fd:9d:d3:ee:0c:4a:7d:62:09:93:
                    a7:7a:b0:2f:57:62:20:a7:65:b9:10:0d:0f:dd:77:
                    bd:6a:c9:3d:51:d4:be:61:31:31:54:26:a9:b3:07:
                    c2:c8:b8:52:2d:07:30:c7:92:71:9e:26:f2:9f:68:
                    54:f6:c4:15:91:a8:02:39:be:d5:95:23:a3:f3:87:
                    6c:6b:78:71:db:b3:ac:6d:0c:57:99:81:a0:a3:93:
                    05:49:b3:bd:4a:71:cb:f2:02:83:9c:96:5e:e1:16:
                    5b:42:4f:0d:4c:94:0e:5f:5e:5e:3c:94:04:91:54:
                    57:be:94:0c:e3:46:74:a4:e5:e2:3c:12:92:16:01:
                    3f:ca:e8:d4:f5:9a:b0:d6:48:b0:e5:2f:de:e0:38:
                    6c:97:b8:a6:c0:45:24:a1:cf:f2:08:67:8e:a2:ae:
                    dc:f9
                Exponent: 65537 (0x10001)
        X509v3 extensions:
            X509v3 Basic Constraints: 
                CA:FALSE
            X509v3 Subject Key Identifier: 
                91:FD:06:2A:1C:88:4B:65:EE:DE:C4:B9:30:42:00:57:EE:A0:27:7A
            X509v3 Authority Key Identifier: 
                keyid:20:51:74:8D:0B:12:C0:83:71:DA:41:4B:28:7E:76:62:0B:9B:06:A9
                DirName:/CN=Teemoorka Network
                serial:24:63:E8:48:F2:32:CB:F5:C6:7F:61:12:E4:B2:0F:65:75:85:45:41

            X509v3 Extended Key Usage: 
                TLS Web Client Authentication
            X509v3 Key Usage: 
                Digital Signature
    Signature Algorithm: sha256WithRSAEncryption
         29:98:ca:2e:02:53:9f:f8:ff:b4:e4:09:0e:15:93:de:af:87:
         d4:7a:df:50:76:97:56:b9:72:13:46:ea:af:d6:c3:24:dd:50:
         e9:be:65:4a:35:c8:34:db:08:db:d3:64:6d:98:58:19:2d:2f:
         77:86:99:1f:09:56:e4:f2:93:5a:f7:4c:db:10:22:28:4f:29:
         11:93:28:7f:62:b7:50:43:38:66:6b:8b:56:ef:df:c6:b5:73:
         0f:b2:bc:3f:35:1e:66:bf:30:ca:b6:bf:49:ca:90:13:6a:fb:
         84:d3:0f:28:d5:d4:e3:11:d7:0e:c4:53:85:b6:38:3f:ad:29:
         d1:41:b3:36:74:3d:1e:5c:a6:17:c7:3e:2b:83:33:f5:c3:ba:
         9a:ad:21:c3:b3:6d:7d:30:8f:54:55:dc:1c:2b:3d:39:f9:a9:
         94:35:4c:53:0d:46:0f:d2:69:65:c9:cf:d0:d6:20:9e:6f:d4:
         ff:86:bb:ed:ea:ad:a7:78:22:d4:a0:df:cd:04:e6:f6:5e:ad:
         7a:07:84:44:12:0f:f6:06:79:6d:ae:8b:6d:38:29:de:b3:15:
         83:c8:5d:6a:b7:e4:1e:a3:0e:9d:74:71:0d:ef:5d:02:c2:90:
         6c:94:bb:f6:96:ea:55:bf:8b:78:4a:59:21:50:33:f8:8c:0f:
         b0:46:b1:0a
-----BEGIN CERTIFICATE-----
MIIDYDCCAkigAwIBAgIQMV/puGt/XARiDHgT1HWkQjANBgkqhkiG9w0BAQsFADAc
MRowGAYDVQQDDBFUZWVtb29ya2EgTmV0d29yazAeFw0yNDA2MTYxNDA2MDhaFw0y
NjA5MTkxNDA2MDhaMBExDzANBgNVBAMMBnJvdXRlcjCCASIwDQYJKoZIhvcNAQEB
BQADggEPADCCAQoCggEBALdPLYaHoesrMzaP7Yve13227f4bLusxm1gr2gE0DVhR
sGNOBJAr3YMrB6ANM7Q3wpaTZDQSoBlRUQLnLZ3fgpTfdPNIlkTfqraToTCBpS57
+0DCkUfy0EGNsE+FZDD9ndPuDEp9YgmTp3qwL1diIKdluRAND913vWrJPVHUvmEx
MVQmqbMHwsi4Ui0HMMeScZ4m8p9oVPbEFZGoAjm+1ZUjo/OHbGt4cduzrG0MV5mB
oKOTBUmzvUpxy/ICg5yWXuEWW0JPDUyUDl9eXjyUBJFUV76UDONGdKTl4jwSkhYB
P8ro1PWasNZIsOUv3uA4bJe4psBFJKHP8ghnjqKu3PkCAwEAAaOBqDCBpTAJBgNV
HRMEAjAAMB0GA1UdDgQWBBSR/QYqHIhLZe7exLkwQgBX7qAnejBXBgNVHSMEUDBO
gBQgUXSNCxLAg3HaQUsofnZiC5sGqaEgpB4wHDEaMBgGA1UEAwwRVGVlbW9vcmth
IE5ldHdvcmuCFCRj6EjyMsv1xn9hEuSyD2V1hUVBMBMGA1UdJQQMMAoGCCsGAQUF
BwMCMAsGA1UdDwQEAwIHgDANBgkqhkiG9w0BAQsFAAOCAQEAKZjKLgJTn/j/tOQJ
DhWT3q+H1HrfUHaXVrlyE0bqr9bDJN1Q6b5lSjXINNsI29NkbZhYGS0vd4aZHwlW
5PKTWvdM2xAiKE8pEZMof2K3UEM4ZmuLVu/fxrVzD7K8PzUeZr8wyra/ScqQE2r7
hNMPKNXU4xHXDsRThbY4P60p0UGzNnQ9HlymF8c+K4Mz9cO6mq0hw7NtfTCPVFXc
HCs9OfmplDVMUw1GD9JpZcnP0NYgnm/U/4a77eqtp3gi1KDfzQTm9l6tegeERBIP
9gZ5ba6LbTgp3rMVg8hdarfkHqMOnXRxDe9dAsKQbJS79pbqVb+LeEpZIVAz+IwP
sEaxCg==
-----END CERTIFICATE-----
