Certificate:
    Data:
        Version: 3 (0x2)
        Serial Number:
            5b:51:c5:c3:a7:d1:59:8f:cd:e5:d1:78:06:e4:53:50
        Signature Algorithm: sha256WithRSAEncryption
        Issuer: CN=Teemoorka Network
        Validity
            Not Before: Jun 17 10:51:04 2024 GMT
            Not After : Sep 20 10:51:04 2026 GMT
        Subject: CN=sqli
        Subject Public Key Info:
            Public Key Algorithm: rsaEncryption
                RSA Public-Key: (2048 bit)
                Modulus:
                    00:ca:d1:6a:23:f9:0b:cd:d3:aa:9d:3c:e1:a0:3f:
                    3d:2d:88:56:bf:77:42:d8:d4:be:61:82:f0:6b:8f:
                    e0:f2:90:3c:4e:fb:e4:57:08:62:17:7f:8f:40:52:
                    01:28:75:b7:1d:52:1e:78:3b:83:70:2a:7e:dc:53:
                    05:cc:73:30:57:bb:6a:fb:8e:22:5f:95:1a:f0:10:
                    d7:dc:ff:98:32:a5:13:43:a8:08:fe:b8:ae:7d:09:
                    2d:85:fe:ee:74:01:c9:6c:c4:b5:80:3c:42:71:2e:
                    50:26:0b:91:01:7b:d9:56:d1:ce:b5:a3:8e:fd:71:
                    2c:f2:3f:0c:6b:cf:cc:ec:df:33:0a:3c:ef:fb:f6:
                    ac:12:b0:bc:9d:18:2a:2c:ee:2f:ef:96:94:d8:07:
                    44:2d:b7:85:17:57:53:8d:77:91:ae:53:f1:72:2b:
                    68:8c:6c:8a:84:dd:72:a6:f9:76:fc:b0:e0:ea:7b:
                    a5:8f:53:67:13:6e:c5:9a:80:4d:22:06:6a:d4:4d:
                    96:21:32:92:b2:1f:85:9e:3f:03:2a:8f:3f:13:9d:
                    fc:61:28:89:c7:11:c0:6f:db:dd:b2:1b:08:fa:7a:
                    d1:e3:2b:82:03:c6:8c:02:c3:72:ea:4a:e7:18:79:
                    f4:15:d5:fd:4d:29:18:b6:f7:a6:ba:0d:bd:31:65:
                    8d:3d
                Exponent: 65537 (0x10001)
        X509v3 extensions:
            X509v3 Basic Constraints: 
                CA:FALSE
            X509v3 Subject Key Identifier: 
                6C:A5:48:6B:D3:E8:AE:64:17:04:8D:A4:66:70:37:AC:CA:BD:A7:86
            X509v3 Authority Key Identifier: 
                keyid:20:51:74:8D:0B:12:C0:83:71:DA:41:4B:28:7E:76:62:0B:9B:06:A9
                DirName:/CN=Teemoorka Network
                serial:24:63:E8:48:F2:32:CB:F5:C6:7F:61:12:E4:B2:0F:65:75:85:45:41

            X509v3 Extended Key Usage: 
                TLS Web Client Authentication
            X509v3 Key Usage: 
                Digital Signature
    Signature Algorithm: sha256WithRSAEncryption
         96:02:0e:3c:b9:b5:b9:42:4f:6a:fc:3e:47:a8:f5:71:a7:4f:
         c8:c7:4d:6f:84:6f:26:61:38:49:f3:b3:0b:82:d5:53:47:6a:
         78:80:33:d3:f6:20:85:20:af:30:9b:45:c3:bd:64:fe:3a:21:
         25:2a:58:1f:dd:e9:73:f2:8f:1e:58:f8:0d:92:17:c4:6d:76:
         6b:76:35:a5:22:7a:93:92:d5:79:d0:9b:42:0a:c9:e2:70:46:
         49:fa:55:e4:ca:36:9d:b7:c4:81:95:f9:78:de:41:42:2e:27:
         4d:17:36:30:55:b2:81:5e:de:14:3b:44:85:cd:9f:10:8d:5e:
         91:2d:50:93:1d:38:e6:b4:1c:dd:bb:56:3c:3c:db:25:69:49:
         9d:49:47:27:ec:35:bf:66:84:3d:53:af:7f:84:6c:d4:af:7b:
         da:bf:e7:d6:42:1f:69:87:1e:a4:bb:2c:09:63:9b:a6:3b:bc:
         54:a7:9c:d1:45:8f:cd:98:5e:b7:a5:b7:6b:0b:86:ba:21:3a:
         e5:ea:fa:00:0d:13:fb:68:10:48:65:8d:ef:6e:2b:30:21:ee:
         c8:ab:b4:45:1c:86:bf:7e:15:f8:33:bc:72:44:bb:b1:eb:6e:
         3e:5b:5b:ef:d3:41:91:71:4c:03:df:ef:91:3f:ff:26:cd:a4:
         01:df:be:36
-----BEGIN CERTIFICATE-----
MIIDXjCCAkagAwIBAgIQW1HFw6fRWY/N5dF4BuRTUDANBgkqhkiG9w0BAQsFADAc
MRowGAYDVQQDDBFUZWVtb29ya2EgTmV0d29yazAeFw0yNDA2MTcxMDUxMDRaFw0y
NjA5MjAxMDUxMDRaMA8xDTALBgNVBAMMBHNxbGkwggEiMA0GCSqGSIb3DQEBAQUA
A4IBDwAwggEKAoIBAQDK0Woj+QvN06qdPOGgPz0tiFa/d0LY1L5hgvBrj+DykDxO
++RXCGIXf49AUgEodbcdUh54O4NwKn7cUwXMczBXu2r7jiJflRrwENfc/5gypRND
qAj+uK59CS2F/u50AclsxLWAPEJxLlAmC5EBe9lW0c61o479cSzyPwxrz8zs3zMK
PO/79qwSsLydGCos7i/vlpTYB0Qtt4UXV1ONd5GuU/FyK2iMbIqE3XKm+Xb8sODq
e6WPU2cTbsWagE0iBmrUTZYhMpKyH4WePwMqjz8TnfxhKInHEcBv292yGwj6etHj
K4IDxowCw3LqSucYefQV1f1NKRi296a6Db0xZY09AgMBAAGjgagwgaUwCQYDVR0T
BAIwADAdBgNVHQ4EFgQUbKVIa9PormQXBI2kZnA3rMq9p4YwVwYDVR0jBFAwToAU
IFF0jQsSwINx2kFLKH52YgubBqmhIKQeMBwxGjAYBgNVBAMMEVRlZW1vb3JrYSBO
ZXR3b3JrghQkY+hI8jLL9cZ/YRLksg9ldYVFQTATBgNVHSUEDDAKBggrBgEFBQcD
AjALBgNVHQ8EBAMCB4AwDQYJKoZIhvcNAQELBQADggEBAJYCDjy5tblCT2r8Pkeo
9XGnT8jHTW+EbyZhOEnzswuC1VNHaniAM9P2IIUgrzCbRcO9ZP46ISUqWB/d6XPy
jx5Y+A2SF8Rtdmt2NaUiepOS1XnQm0IKyeJwRkn6VeTKNp23xIGV+XjeQUIuJ00X
NjBVsoFe3hQ7RIXNnxCNXpEtUJMdOOa0HN27Vjw82yVpSZ1JRyfsNb9mhD1Tr3+E
bNSve9q/59ZCH2mHHqS7LAljm6Y7vFSnnNFFj82YXrelt2sLhrohOuXq+gANE/to
EEhlje9uKzAh7sirtEUchr9+FfgzvHJEu7Hrbj5bW+/TQZFxTAPf75E//ybNpAHf
vjY=
-----END CERTIFICATE-----
