Certificate:
    Data:
        Version: 3 (0x2)
        Serial Number:
            5f:11:66:8c:67:41:f5:4d:2b:cb:a4:e5:9a:d8:d3:24
        Signature Algorithm: sha256WithRSAEncryption
        Issuer: CN=Teemoorka Network
        Validity
            Not Before: Jun 16 08:39:21 2024 GMT
            Not After : Sep 19 08:39:21 2026 GMT
        Subject: CN=sambaserver
        Subject Public Key Info:
            Public Key Algorithm: rsaEncryption
                RSA Public-Key: (2048 bit)
                Modulus:
                    00:b8:75:94:3d:29:c4:1d:56:d6:3a:f3:ab:5a:c3:
                    ba:d0:84:35:44:30:0b:06:a7:7e:07:50:da:7d:85:
                    6a:df:5f:1c:d8:07:79:70:2d:ff:d8:ae:1b:24:57:
                    39:d8:42:cb:94:ff:02:ec:5a:0e:ba:2d:3b:78:22:
                    31:8a:f5:d0:67:de:76:ae:f4:8d:df:70:97:ef:66:
                    df:47:23:5b:ac:05:f8:87:85:84:a5:87:9c:35:6d:
                    73:c3:8a:2f:8d:6e:8a:07:fc:5a:7c:86:1a:67:fb:
                    32:5c:99:65:ce:5d:15:7a:08:dd:41:0a:2f:d1:14:
                    fd:d2:38:d8:d0:c7:4a:10:5e:4e:86:10:16:fa:5a:
                    b6:c7:48:62:66:7f:e8:db:c7:1e:52:f0:4f:c4:07:
                    41:2c:c3:83:be:1c:63:7a:a1:73:d8:71:52:65:78:
                    e1:c5:b8:03:a5:28:2b:d8:b5:48:3c:b3:53:ac:76:
                    fa:c9:17:63:ac:dd:ac:ac:cc:6f:50:ec:0d:a9:ce:
                    f5:e7:6e:20:42:b6:09:7a:a4:14:9c:64:fc:25:26:
                    07:20:7c:43:45:da:5c:d2:98:3d:69:38:6e:6c:96:
                    e4:da:59:3c:85:94:4b:39:ef:c0:2f:8f:1a:78:03:
                    99:9c:c3:7f:76:d9:09:12:9d:79:23:13:21:b9:ea:
                    c4:d9
                Exponent: 65537 (0x10001)
        X509v3 extensions:
            X509v3 Basic Constraints: 
                CA:FALSE
            X509v3 Subject Key Identifier: 
                75:41:7A:39:2A:68:ED:25:A1:40:A6:DD:67:84:6E:7E:DE:59:E8:1E
            X509v3 Authority Key Identifier: 
                keyid:20:51:74:8D:0B:12:C0:83:71:DA:41:4B:28:7E:76:62:0B:9B:06:A9
                DirName:/CN=Teemoorka Network
                serial:24:63:E8:48:F2:32:CB:F5:C6:7F:61:12:E4:B2:0F:65:75:85:45:41

            X509v3 Extended Key Usage: 
                TLS Web Client Authentication
            X509v3 Key Usage: 
                Digital Signature
    Signature Algorithm: sha256WithRSAEncryption
         56:03:f8:03:48:1f:6e:85:47:1c:36:6b:9c:f2:86:47:35:74:
         01:59:fc:71:b4:bb:c3:65:c2:54:42:df:f2:89:10:6f:67:2e:
         39:67:25:cc:bd:8a:a5:1e:27:92:86:2b:33:67:7a:34:9a:2a:
         49:df:16:cd:46:3e:d6:c2:e4:0b:f7:b2:62:a3:96:b5:bf:c0:
         2d:94:ed:9a:6e:36:2f:a2:9e:d5:c4:16:f3:cc:49:e8:a0:cf:
         f1:d7:9a:8b:ce:ee:a3:c1:21:c0:04:b1:b2:65:01:75:3e:24:
         23:a1:15:0b:77:24:88:f9:b4:b9:ee:4d:07:39:d9:52:6c:a2:
         e7:aa:61:43:9a:ce:f2:4c:f3:91:82:e3:a8:6f:a9:b8:df:aa:
         c0:41:08:1c:20:63:42:46:ed:4c:3f:4e:ef:b5:7f:26:c0:84:
         d2:20:3f:f7:82:ec:29:d6:70:ce:b8:33:32:a5:05:06:17:96:
         82:53:12:b2:21:d9:c4:b4:ca:c5:c2:5b:51:85:67:d7:1f:94:
         ee:fa:43:4c:c2:6f:ad:77:2e:b4:64:25:8f:84:1b:15:bc:e1:
         d0:b5:65:31:51:8a:e2:89:33:e8:cf:97:10:05:29:2d:69:54:
         0b:7c:9d:2b:f7:d4:95:b7:21:41:33:aa:3b:db:4f:a0:3b:54:
         7c:f2:94:c8
-----BEGIN CERTIFICATE-----
MIIDZTCCAk2gAwIBAgIQXxFmjGdB9U0ry6TlmtjTJDANBgkqhkiG9w0BAQsFADAc
MRowGAYDVQQDDBFUZWVtb29ya2EgTmV0d29yazAeFw0yNDA2MTYwODM5MjFaFw0y
NjA5MTkwODM5MjFaMBYxFDASBgNVBAMMC3NhbWJhc2VydmVyMIIBIjANBgkqhkiG
9w0BAQEFAAOCAQ8AMIIBCgKCAQEAuHWUPSnEHVbWOvOrWsO60IQ1RDALBqd+B1Da
fYVq318c2Ad5cC3/2K4bJFc52ELLlP8C7FoOui07eCIxivXQZ952rvSN33CX72bf
RyNbrAX4h4WEpYecNW1zw4ovjW6KB/xafIYaZ/syXJllzl0VegjdQQov0RT90jjY
0MdKEF5OhhAW+lq2x0hiZn/o28ceUvBPxAdBLMODvhxjeqFz2HFSZXjhxbgDpSgr
2LVIPLNTrHb6yRdjrN2srMxvUOwNqc71524gQrYJeqQUnGT8JSYHIHxDRdpc0pg9
aThubJbk2lk8hZRLOe/AL48aeAOZnMN/dtkJEp15IxMhuerE2QIDAQABo4GoMIGl
MAkGA1UdEwQCMAAwHQYDVR0OBBYEFHVBejkqaO0loUCm3WeEbn7eWegeMFcGA1Ud
IwRQME6AFCBRdI0LEsCDcdpBSyh+dmILmwapoSCkHjAcMRowGAYDVQQDDBFUZWVt
b29ya2EgTmV0d29ya4IUJGPoSPIyy/XGf2ES5LIPZXWFRUEwEwYDVR0lBAwwCgYI
KwYBBQUHAwIwCwYDVR0PBAQDAgeAMA0GCSqGSIb3DQEBCwUAA4IBAQBWA/gDSB9u
hUccNmuc8oZHNXQBWfxxtLvDZcJUQt/yiRBvZy45ZyXMvYqlHieShiszZ3o0mipJ
3xbNRj7WwuQL97Jio5a1v8AtlO2abjYvop7VxBbzzEnooM/x15qLzu6jwSHABLGy
ZQF1PiQjoRULdySI+bS57k0HOdlSbKLnqmFDms7yTPORguOob6m436rAQQgcIGNC
Ru1MP07vtX8mwITSID/3guwp1nDOuDMypQUGF5aCUxKyIdnEtMrFwltRhWfXH5Tu
+kNMwm+tdy60ZCWPhBsVvOHQtWUxUYriiTPoz5cQBSktaVQLfJ0r99SVtyFBM6o7
20+gO1R88pTI
-----END CERTIFICATE-----
